; ModuleID = '19/405.c'
source_filename = "19/405.c"
target datalayout = "e-m:e-p270:32:32-p271:32:32-p272:64:64-i64:64-f80:128-n8:16:32:64-S128"
target triple = "x86_64-pc-linux-gnu"

@.str = private unnamed_addr constant [3 x i8] c"%c\00", align 1
@.str.1 = private unnamed_addr constant [2 x i8] c" \00", align 1

; Function Attrs: noinline nounwind uwtable
define dso_local void @main() #0 {
  %1 = alloca [100 x i8], align 16
  %2 = alloca [100 x i8], align 16
  %3 = alloca [100 x i8], align 16
  %4 = alloca i8*, align 8
  %5 = alloca i8*, align 8
  %6 = alloca i8*, align 8
  %7 = alloca i8*, align 8
  %8 = alloca i32, align 4
  %9 = alloca i32, align 4
  %10 = alloca i32, align 4
  %11 = alloca i32, align 4
  store i32 1, i32* %11, align 4
  %12 = getelementptr inbounds [100 x i8], [100 x i8]* %1, i64 0, i64 0
  %13 = call i32 (i8*, ...) bitcast (i32 (...)* @gets to i32 (i8*, ...)*)(i8* %12)
  %14 = getelementptr inbounds [100 x i8], [100 x i8]* %2, i64 0, i64 0
  %15 = call i32 (i8*, ...) bitcast (i32 (...)* @gets to i32 (i8*, ...)*)(i8* %14)
  %16 = getelementptr inbounds [100 x i8], [100 x i8]* %3, i64 0, i64 0
  %17 = call i32 (i8*, ...) bitcast (i32 (...)* @gets to i32 (i8*, ...)*)(i8* %16)
  %18 = getelementptr inbounds [100 x i8], [100 x i8]* %1, i64 0, i64 0
  store i8* %18, i8** %4, align 8
  %19 = getelementptr inbounds [100 x i8], [100 x i8]* %2, i64 0, i64 0
  store i8* %19, i8** %5, align 8
  %20 = getelementptr inbounds [100 x i8], [100 x i8]* %3, i64 0, i64 0
  store i8* %20, i8** %6, align 8
  %21 = getelementptr inbounds [100 x i8], [100 x i8]* %1, i64 0, i64 0
  %22 = call i64 @strlen(i8* %21) #3
  %23 = trunc i64 %22 to i32
  store i32 %23, i32* %8, align 4
  %24 = getelementptr inbounds [100 x i8], [100 x i8]* %2, i64 0, i64 0
  %25 = call i64 @strlen(i8* %24) #3
  %26 = trunc i64 %25 to i32
  store i32 %26, i32* %9, align 4
  %27 = getelementptr inbounds [100 x i8], [100 x i8]* %3, i64 0, i64 0
  %28 = call i64 @strlen(i8* %27) #3
  %29 = trunc i64 %28 to i32
  store i32 %29, i32* %10, align 4
  br label %30

30:                                               ; preds = %124, %0
  %31 = load i8*, i8** %4, align 8
  %32 = getelementptr inbounds [100 x i8], [100 x i8]* %1, i64 0, i64 0
  %33 = load i32, i32* %8, align 4
  %34 = sext i32 %33 to i64
  %35 = getelementptr inbounds i8, i8* %32, i64 %34
  %36 = icmp ult i8* %31, %35
  br i1 %36, label %37, label %125

37:                                               ; preds = %30
  %38 = getelementptr inbounds [100 x i8], [100 x i8]* %2, i64 0, i64 0
  store i8* %38, i8** %5, align 8
  %39 = getelementptr inbounds [100 x i8], [100 x i8]* %3, i64 0, i64 0
  store i8* %39, i8** %6, align 8
  %40 = load i8*, i8** %4, align 8
  %41 = load i8, i8* %40, align 1
  %42 = sext i8 %41 to i32
  %43 = call i32 @isalpha(i32 %42) #3
  %44 = icmp ne i32 %43, 0
  br i1 %44, label %45, label %120

45:                                               ; preds = %37
  %46 = load i32, i32* %11, align 4
  %47 = icmp ne i32 %46, 0
  br i1 %47, label %48, label %119

48:                                               ; preds = %45
  store i32 0, i32* %11, align 4
  %49 = load i8*, i8** %4, align 8
  store i8* %49, i8** %7, align 8
  br label %50

50:                                               ; preds = %67, %48
  %51 = load i8*, i8** %5, align 8
  %52 = getelementptr inbounds [100 x i8], [100 x i8]* %2, i64 0, i64 0
  %53 = load i32, i32* %9, align 4
  %54 = sext i32 %53 to i64
  %55 = getelementptr inbounds i8, i8* %52, i64 %54
  %56 = icmp ult i8* %51, %55
  br i1 %56, label %57, label %72

57:                                               ; preds = %50
  %58 = load i8*, i8** %7, align 8
  %59 = load i8, i8* %58, align 1
  %60 = sext i8 %59 to i32
  %61 = load i8*, i8** %5, align 8
  %62 = load i8, i8* %61, align 1
  %63 = sext i8 %62 to i32
  %64 = icmp ne i32 %60, %63
  br i1 %64, label %65, label %66

65:                                               ; preds = %57
  br label %72

66:                                               ; preds = %57
  br label %67

67:                                               ; preds = %66
  %68 = load i8*, i8** %7, align 8
  %69 = getelementptr inbounds i8, i8* %68, i32 1
  store i8* %69, i8** %7, align 8
  %70 = load i8*, i8** %5, align 8
  %71 = getelementptr inbounds i8, i8* %70, i32 1
  store i8* %71, i8** %5, align 8
  br label %50

72:                                               ; preds = %65, %50
  %73 = load i8*, i8** %5, align 8
  %74 = getelementptr inbounds [100 x i8], [100 x i8]* %2, i64 0, i64 0
  %75 = ptrtoint i8* %73 to i64
  %76 = ptrtoint i8* %74 to i64
  %77 = sub i64 %75, %76
  %78 = load i32, i32* %9, align 4
  %79 = sext i32 %78 to i64
  %80 = icmp eq i64 %77, %79
  br i1 %80, label %81, label %102

81:                                               ; preds = %72
  br label %82

82:                                               ; preds = %94, %81
  %83 = load i8*, i8** %6, align 8
  %84 = getelementptr inbounds [100 x i8], [100 x i8]* %3, i64 0, i64 0
  %85 = load i32, i32* %10, align 4
  %86 = sext i32 %85 to i64
  %87 = getelementptr inbounds i8, i8* %84, i64 %86
  %88 = icmp ult i8* %83, %87
  br i1 %88, label %89, label %97

89:                                               ; preds = %82
  %90 = load i8*, i8** %6, align 8
  %91 = load i8, i8* %90, align 1
  %92 = sext i8 %91 to i32
  %93 = call i32 (i8*, ...) @printf(i8* getelementptr inbounds ([3 x i8], [3 x i8]* @.str, i64 0, i64 0), i32 %92)
  br label %94

94:                                               ; preds = %89
  %95 = load i8*, i8** %6, align 8
  %96 = getelementptr inbounds i8, i8* %95, i32 1
  store i8* %96, i8** %6, align 8
  br label %82

97:                                               ; preds = %82
  %98 = load i8*, i8** %4, align 8
  %99 = load i32, i32* %9, align 4
  %100 = sext i32 %99 to i64
  %101 = getelementptr inbounds i8, i8* %98, i64 %100
  store i8* %101, i8** %4, align 8
  br label %118

102:                                              ; preds = %72
  br label %103

103:                                              ; preds = %114, %102
  %104 = load i8*, i8** %4, align 8
  %105 = load i8, i8* %104, align 1
  %106 = sext i8 %105 to i32
  %107 = call i32 @isalpha(i32 %106) #3
  %108 = icmp ne i32 %107, 0
  br i1 %108, label %109, label %117

109:                                              ; preds = %103
  %110 = load i8*, i8** %4, align 8
  %111 = load i8, i8* %110, align 1
  %112 = sext i8 %111 to i32
  %113 = call i32 (i8*, ...) @printf(i8* getelementptr inbounds ([3 x i8], [3 x i8]* @.str, i64 0, i64 0), i32 %112)
  br label %114

114:                                              ; preds = %109
  %115 = load i8*, i8** %4, align 8
  %116 = getelementptr inbounds i8, i8* %115, i32 1
  store i8* %116, i8** %4, align 8
  br label %103

117:                                              ; preds = %103
  br label %118

118:                                              ; preds = %117, %97
  br label %119

119:                                              ; preds = %118, %45
  br label %124

120:                                              ; preds = %37
  %121 = call i32 (i8*, ...) @printf(i8* getelementptr inbounds ([2 x i8], [2 x i8]* @.str.1, i64 0, i64 0))
  store i32 1, i32* %11, align 4
  %122 = load i8*, i8** %4, align 8
  %123 = getelementptr inbounds i8, i8* %122, i32 1
  store i8* %123, i8** %4, align 8
  br label %124

124:                                              ; preds = %120, %119
  br label %30

125:                                              ; preds = %30
  ret void
}

declare dso_local i32 @gets(...) #1

; Function Attrs: nounwind readonly
declare dso_local i64 @strlen(i8*) #2

; Function Attrs: nounwind readonly
declare dso_local i32 @isalpha(i32) #2

declare dso_local i32 @printf(i8*, ...) #1


!llvm.module.flags = !{!0}
!llvm.ident = !{!1}

!0 = !{i32 1, !"wchar_size", i32 4}
!1 = !{!"clang version 10.0.0-4ubuntu1 "}
